; Function Attrs: mustprogress nofree norecurse nosync nounwind willreturn memory(read, inaccessiblemem: none) uwtable
define noundef zeroext i1 @_ZNK8facebook5velox6common16BigintMultiRange14testInt64RangeEllb(ptr nocapture noundef nonnull readonly align 8 dereferenceable(64) %this, i64 noundef %min, i64 noundef %max, i1 noundef zeroext %hasNull) unnamed_addr #7 align 2 {
entry:
  br i1 %hasNull, label %land.lhs.true, label %if.end.thread

land.lhs.true:                                    ; preds = %entry
  %nullAllowed_ = getelementptr inbounds i8, ptr %this, i64 8
  %0 = load i8, ptr %nullAllowed_, align 8
  %1 = and i8 %0, 1
  %tobool2.not = icmp eq i8 %1, 0
  br i1 %tobool2.not, label %if.end, label %return

if.end:                                           ; preds = %land.lhs.true
  %ranges_ = getelementptr inbounds i8, ptr %this, i64 16
  %2 = load ptr, ptr %ranges_, align 8
  %_M_finish.i = getelementptr inbounds i8, ptr %this, i64 24
  %3 = load ptr, ptr %_M_finish.i, align 8
  %cmp.i.not7 = icmp eq ptr %2, %3
  br i1 %cmp.i.not7, label %return, label %for.body.lr.ph

if.end.thread:                                    ; preds = %entry
  %ranges_15 = getelementptr inbounds i8, ptr %this, i64 16
  %4 = load ptr, ptr %ranges_15, align 8
  %_M_finish.i16 = getelementptr inbounds i8, ptr %this, i64 24
  %5 = load ptr, ptr %_M_finish.i16, align 8
  %cmp.i.not717 = icmp eq ptr %4, %5
  br i1 %cmp.i.not717, label %return, label %for.body.preheader

for.body.lr.ph:                                   ; preds = %if.end
  br i1 %hasNull, label %for.body.us, label %for.body.preheader

for.body.preheader:                               ; preds = %if.end.thread, %for.body.lr.ph
  %6 = phi ptr [ %2, %for.body.lr.ph ], [ %4, %if.end.thread ]
  %7 = phi ptr [ %3, %for.body.lr.ph ], [ %5, %if.end.thread ]
  br label %for.body

for.body.us:                                      ; preds = %for.body.lr.ph, %for.cond.us
  %__begin2.sroa.0.08.us = phi ptr [ %incdec.ptr.i.us, %for.cond.us ], [ %2, %for.body.lr.ph ]
  %8 = load ptr, ptr %__begin2.sroa.0.08.us, align 8
  %nullAllowed_.i.us = getelementptr inbounds i8, ptr %8, i64 8
  %9 = load i8, ptr %nullAllowed_.i.us, align 8
  %10 = and i8 %9, 1
  %tobool2.not.i.us = icmp eq i8 %10, 0
  br i1 %tobool2.not.i.us, label %_ZNK8facebook5velox6common11BigintRange14testInt64RangeEllb.exit.us, label %return

for.cond.us:                                      ; preds = %_ZNK8facebook5velox6common11BigintRange14testInt64RangeEllb.exit.us
  %incdec.ptr.i.us = getelementptr inbounds i8, ptr %__begin2.sroa.0.08.us, i64 8
  %cmp.i.not.us = icmp eq ptr %incdec.ptr.i.us, %3
  br i1 %cmp.i.not.us, label %return, label %for.body.us

_ZNK8facebook5velox6common11BigintRange14testInt64RangeEllb.exit.us: ; preds = %for.body.us
  %upper_.i.us = getelementptr inbounds i8, ptr %8, i64 24
  %11 = load i64, ptr %upper_.i.us, align 8
  %cmp.i3.us = icmp sge i64 %11, %min
  %lower_.i.us = getelementptr inbounds i8, ptr %8, i64 16
  %12 = load i64, ptr %lower_.i.us, align 8
  %cmp3.i.us = icmp sle i64 %12, %max
  %lnot.i.us = select i1 %cmp.i3.us, i1 %cmp3.i.us, i1 false
  br i1 %lnot.i.us, label %return, label %for.cond.us

for.body:                                         ; preds = %for.body, %for.body.preheader
  %__begin2.sroa.0.08 = phi ptr [ %6, %for.body.preheader ], [ %incdec.ptr.i, %for.body ]
  %13 = load ptr, ptr %__begin2.sroa.0.08, align 8
  %upper_.i = getelementptr inbounds i8, ptr %13, i64 24
  %14 = load i64, ptr %upper_.i, align 8
  %cmp.i3 = icmp sge i64 %14, %min
  %lower_.i = getelementptr inbounds i8, ptr %13, i64 16
  %15 = load i64, ptr %lower_.i, align 8
  %cmp3.i = icmp sle i64 %15, %max
  %lnot.i = select i1 %cmp.i3, i1 %cmp3.i, i1 false
  %incdec.ptr.i = getelementptr inbounds i8, ptr %__begin2.sroa.0.08, i64 8
  %cmp.i.not = icmp eq ptr %incdec.ptr.i, %7
  %or.cond = select i1 %lnot.i, i1 true, i1 %cmp.i.not
  br i1 %or.cond, label %return, label %for.body

return:                                           ; preds = %for.body, %_ZNK8facebook5velox6common11BigintRange14testInt64RangeEllb.exit.us, %for.cond.us, %for.body.us, %if.end.thread, %if.end, %land.lhs.true
  %retval.0 = phi i1 [ true, %land.lhs.true ], [ false, %if.end ], [ false, %if.end.thread ], [ true, %_ZNK8facebook5velox6common11BigintRange14testInt64RangeEllb.exit.us ], [ false, %for.cond.us ], [ true, %for.body.us ], [ %lnot.i, %for.body ]
  ret i1 %retval.0
}